{
   <report1MssingField>
   Memcheck:Cond
   fun:_ZNKSt6chrono4year2okEv
   fun:_ZNKSt6chrono14year_month_day2okEv
   fun:_ZNK9UserModel19reportMissingFieldsB5cxx11Ev
   fun:_ZN15UserDbInterface6insertERK9UserModel
   fun:_ZN19TestUserDBInterface33negativePathMissingRequiredFieldsEv
   fun:_ZSt13__invoke_implIN19TestDBInterfaceCore10TestStatusERM19TestUserDBInterfaceFS1_vERPS2_JEET_St21__invoke_memfun_derefOT0_OT1_DpOT2_
   fun:_ZSt8__invokeIRM19TestUserDBInterfaceFN19TestDBInterfaceCore10TestStatusEvEJRPS0_EENSt15__invoke_resultIT_JDpT0_EE4typeEOS9_DpOSA_
   fun:_ZNSt5_BindIFM19TestUserDBInterfaceFN19TestDBInterfaceCore10TestStatusEvEPS0_EE6__callIS2_JEJLm0EEEET_OSt5tupleIJDpT0_EESt12_Index_tupleIJXspT1_EEE
   fun:_ZNSt5_BindIFM19TestUserDBInterfaceFN19TestDBInterfaceCore10TestStatusEvEPS0_EEclIJES2_EET0_DpOT_
   fun:_ZSt13__invoke_implIN19TestDBInterfaceCore10TestStatusERSt5_BindIFM19TestUserDBInterfaceFS1_vEPS3_EEJEET_St14__invoke_otherOT0_DpOT1_
   fun:_ZSt10__invoke_rIN19TestDBInterfaceCore10TestStatusERSt5_BindIFM19TestUserDBInterfaceFS1_vEPS3_EEJEENSt9enable_ifIX16is_invocable_r_vIT_T0_JDpT1_EEESB_E4typeEOSC_DpOSD_
   fun:_ZNSt17_Function_handlerIFN19TestDBInterfaceCore10TestStatusEvESt5_BindIFM19TestUserDBInterfaceFS1_vEPS4_EEE9_M_invokeERKSt9_Any_data
}
{
   <report2userMssingField>
   Memcheck:Cond
   fun:_ZNKSt6chrono4year2okEv
   fun:_ZNKSt6chrono14year_month_day2okEv
   fun:_ZNK9UserModel19reportMissingFieldsB5cxx11Ev
   fun:_ZN15UserDbInterface6insertERK9UserModel
   fun:_ZN19TestUserDBInterface33negativePathMissingRequiredFieldsEv
   fun:_ZSt13__invoke_implIN19TestDBInterfaceCore10TestStatusERM19TestUserDBInterfaceFS1_vERPS2_JEET_St21__invoke_memfun_derefOT0_OT1_DpOT2_
   fun:_ZSt8__invokeIRM19TestUserDBInterfaceFN19TestDBInterfaceCore10TestStatusEvEJRPS0_EENSt15__invoke_resultIT_JDpT0_EE4typeEOS9_DpOSA_
   fun:_ZNSt5_BindIFM19TestUserDBInterfaceFN19TestDBInterfaceCore10TestStatusEvEPS0_EE6__callIS2_JEJLm0EEEET_OSt5tupleIJDpT0_EESt12_Index_tupleIJXspT1_EEE
   fun:_ZNSt5_BindIFM19TestUserDBInterfaceFN19TestDBInterfaceCore10TestStatusEvEPS0_EEclIJES2_EET0_DpOT_
   fun:_ZSt13__invoke_implIN19TestDBInterfaceCore10TestStatusERSt5_BindIFM19TestUserDBInterfaceFS1_vEPS3_EEJEET_St14__invoke_otherOT0_DpOT1_
   fun:_ZSt10__invoke_rIN19TestDBInterfaceCore10TestStatusERSt5_BindIFM19TestUserDBInterfaceFS1_vEPS3_EEJEENSt9enable_ifIX16is_invocable_r_vIT_T0_JDpT1_EEESB_E4typeEOSC_DpOSD_
   fun:_ZNSt17_Function_handlerIFN19TestDBInterfaceCore10TestStatusEvESt5_BindIFM19TestUserDBInterfaceFS1_vEPS4_EEE9_M_invokeERKSt9_Any_data
}
{
   <user3reportMissinsgField>
   Memcheck:Cond
   fun:_ZNKSt6chrono5month2okEv
   fun:_ZNKSt6chrono14year_month_day2okEv
   fun:_ZNK9UserModel19reportMissingFieldsB5cxx11Ev
   fun:_ZN15UserDbInterface6insertERK9UserModel
   fun:_ZN19TestUserDBInterface33negativePathMissingRequiredFieldsEv
   fun:_ZSt13__invoke_implIN19TestDBInterfaceCore10TestStatusERM19TestUserDBInterfaceFS1_vERPS2_JEET_St21__invoke_memfun_derefOT0_OT1_DpOT2_
   fun:_ZSt8__invokeIRM19TestUserDBInterfaceFN19TestDBInterfaceCore10TestStatusEvEJRPS0_EENSt15__invoke_resultIT_JDpT0_EE4typeEOS9_DpOSA_
   fun:_ZNSt5_BindIFM19TestUserDBInterfaceFN19TestDBInterfaceCore10TestStatusEvEPS0_EE6__callIS2_JEJLm0EEEET_OSt5tupleIJDpT0_EESt12_Index_tupleIJXspT1_EEE
   fun:_ZNSt5_BindIFM19TestUserDBInterfaceFN19TestDBInterfaceCore10TestStatusEvEPS0_EEclIJES2_EET0_DpOT_
   fun:_ZSt13__invoke_implIN19TestDBInterfaceCore10TestStatusERSt5_BindIFM19TestUserDBInterfaceFS1_vEPS3_EEJEET_St14__invoke_otherOT0_DpOT1_
   fun:_ZSt10__invoke_rIN19TestDBInterfaceCore10TestStatusERSt5_BindIFM19TestUserDBInterfaceFS1_vEPS3_EEJEENSt9enable_ifIX16is_invocable_r_vIT_T0_JDpT1_EEESB_E4typeEOSC_DpOSD_
   fun:_ZNSt17_Function_handlerIFN19TestDBInterfaceCore10TestStatusEvESt5_BindIFM19TestUserDBInterfaceFS1_vEPS4_EEE9_M_invokeERKSt9_Any_data
}


